(dp1
S'fc9ea37991725dd6eb2d8eaa0120716d'
p2
S'http://www.world-war-2.info/figures/siegfried-westphal.php'
p3
sS'9f3c9fa953d3bf47d3bb716d59ceb965'
p4
S'http://en.wikipedia.org/wiki/Irish_neutrality_during_World_War_II'
p5
sS'3bd8dfba53d4d8e0c34605b1dd2c9585'
p6
S'http://www.world-war-2.info/trivia/trivia_5.php'
p7
sS'59ec94462b6e14fd514a8cb5033482c9'
p8
S'http://en.wikipedia.org/wiki/Extermination_camp'
p9
sS'dd54f7aa339defc144b11c5c24d8b413'
p10
S'http://en.wikipedia.org/wiki/Mamayev_Kurgan'
p11
sS'8423623bec9acd4ce7a53e5b41d01259'
p12
S'http://en.wikipedia.org/wiki/Michigan_State_University'
p13
sS'4722d36b47c308276b825ce370b011cf'
p14
S'http://www.world-war-2.info/poems/poems_27.php'
p15
sS'582df2c3e590a524fbbeb9482c4d08a9'
p16
S'http://www.world-war-2.info/aircraft/aircraft_49.php'
p17
sS'6ec592034dd72720478603a6c285b302'
p18
S'http://www.world-war-2.info/trivia/trivia_3.php'
p19
sS'3e96d69608304e013b3ceea250d078b9'
p20
S'http://www.armchairgeneral.com/rkkaww2/maps.htm'
p21
sS'0239f70b58fc9045c55663a4b188f480'
p22
S'http://www.world-war-2.info/aircraft/aircraft_26.php'
p23
sS'366480a64d22f471af521949e01768b7'
p24
S'http://en.wikipedia.org/wiki/Semyon_Timoshenko'
p25
sS'2c2d350e8a1a2a35afc54cf98424575d'
p26
S'http://www.militaryfactory.com/aircraft/detail-page-2.asp?aircraft_id=619'
p27
sS'5d0acd033b4bc5fd85b0d445b1d2f023'
p28
S'http://en.wikipedia.org/wiki/Guszt%C3%A1v_J%C3%A1ny'
p29
sS'06e2c4f4b7762e7a541ee04d52eee8e2'
p30
S'http://en.wikiquote.org/wiki/Special:Search/World_War_II'
p31
sS'fe7f14f784637b773a8164ab935a6ed0'
p32
S'http://en.wikipedia.org/wiki/Volkssturm'
p33
sS'8e8900ae1d9f283ca383e85556c13aba'
p34
S'http://www.world-war-2.info/figures/erich-fromm.php'
p35
sS'f512c4410e1b6327958e225bda9ec294'
p36
S'http://en.wikipedia.org/wiki/Operation_Donnerschlag'
p37
sS'a1a83ffaa10ef7848d3c71ab96d1f2b8'
p38
S'http://www.world-war-2.info/figures/akiro-muto.php'
p39
sS'c6c8b097bbcabda805333f4670933060'
p40
S'http://en.wikipedia.org/wiki/Tatsinskaya_Airfield'
p41
sS'4b9e42a2de47fb7e9fa429911b945476'
p42
S'http://en.wikipedia.org/wiki/David_Glantz'
p43
sS'dc60496f962e86f54d3673accca7d55a'
p44
S'http://en.wikipedia.org/wiki/Socialist_Equality_Party_(United_States)'
p45
sS'a6c9e503f4153209ee7fbb4b64f62706'
p46
S'http://www.world-war-2.info/figures/erich-hartmann.php'
p47
sS'42ecfee83b9e0f68b827f4fec1be91f7'
p48
S'http://en.wikipedia.org/wiki/Index_of_World_War_II_articles_(A)'
p49
sS'ccecfdb54e14644c629e8a530212965e'
p50
S'http://en.wikipedia.org/wiki/List_of_World_War_II_military_equipment'
p51
sS'36a2d267d2d9bff639271ab8eb6a53b3'
p52
S'http://en.wikipedia.org/wiki/Tadamichi_Kuribayashi'
p53
sS'e2b3dcfca2d1604ad196b81586ad265a'
p54
S'http://en.wikipedia.org/wiki/22nd_Panzer_Division_(Wehrmacht)'
p55
sS'9a151fa844d01f8419ec2b0f97ae5777'
p56
S'http://en.wikipedia.org/wiki/File:Soviet_marines-in_the_battle_of_stalingrad_volga_banks.jpg'
p57
sS'9a0a170f436744940714e5e91eb95726'
p58
S'http://www.world-war-2.info/trivia/trivia_12.php'
p59
sS'5432ba9251ffbb713aeea9d5480b6e19'
p60
S'http://en.wikipedia.org/wiki/Royal_Engineers'
p61
sS'61ef274748f097278e901989a41cf49e'
p62
S'http://www.history.com/topics/battle-of-kursk'
p63
sS'450976a2fce861bb720ffa5ccf67cd79'
p64
S'http://www.world-war-2.info/figures/george-patton.php'
p65
sS'9f15c9ed0c0a38042f8fc6acc0c5a7c2'
p66
S'http://en.wikipedia.org/wiki/Walther_von_Seydlitz-Kurzbach'
p67
sS'2c63d7dccfd5f3f532310d85b0ed0c70'
p68
S'http://www.world-war-2.info/figures/merritt-edson.php'
p69
sS'081239c82043b5bbde61f0b5530e1e66'
p70
S'http://en.wikipedia.org/wiki/Stalingrad_Front'
p71
sS'a9a5f9d6a39d77c64e4fe7f0cb57cd10'
p72
S'http://www.world-war-2.info/aircraft/aircraft_14.php'
p73
sS'13c00a8acb148400ff73b37ae5c2181c'
p74
S'http://en.wikipedia.org/wiki/Uruguay_during_World_War_II'
p75
sS'6299e649821856175cdf540250d1e661'
p76
S'http://en.wikipedia.org/wiki/OST-Arbeiter'
p77
sS'59012441225b5dbd45440aedff14de8d'
p78
S'http://www.world-war-2.info/figures/henri-giraud.php'
p79
sS'ce30a2178b84f1eac5b032e318bcf33d'
p80
S'http://www.world-war-2.info/aircraft/aircraft_32.php'
p81
sS'9541e1e298b96c209a74ddc33bc0c8bb'
p82
S'http://www.world-war-2.info/figures/hastings-ismay.php'
p83
sS'cbe7620be5351d4dbe8013f6d435e574'
p84
S'http://en.wikipedia.org/wiki/File:German_pows_stalingrad_1943.jpg'
p85
sS'2100f4f30239543418327c6622171361'
p86
S'http://en.wikipedia.org/wiki/George_AFB'
p87
sS'0547e9ca59a24245aa43922ea238f958'
p88
S'http://en.wikipedia.org/wiki/The_Holocaust_in_Ukraine'
p89
sS'bb6a20f0e6b185f9a665505995e31cf4'
p90
S'http://en.wikipedia.org/wiki/File:Medal_defense_of_Stalingrad.jpg'
p91
sS'29e25619903ffc5ff87b18bf3bf271a9'
p92
S'http://www.world-war-2.info/aircraft/aircraft_77.php'
p93
sS'72ebbe0b2364f3e781c866ec0a519086'
p94
S'http://en.wikipedia.org/wiki/Vasily_Grossman'
p95
sS'9ba43f14b51d5e63d10b51d21ec94452'
p96
S'http://en.wikipedia.org/wiki/Soviet_First_Guards_Army'
p97
sS'218e7548e162546e0e820dca81f1aeac'
p98
S'http://www.history.com/photos/world-war-ii-rest-and-relaxation'
p99
sS'cdb94797e33bd9d3c23e8e864547734f'
p100
S'http://en.wikipedia.org/wiki/Campaigns_of_World_War_II'
p101
sS'630d7325ea69055c6c90464ae2fcaf2c'
p102
S'http://en.wikipedia.org/wiki/Battle_of_Stalingrad_in_popular_culture'
p103
sS'41062078dfb04bd603a399a72d3cac9f'
p104
S'http://www.world-war-2.info/trivia/trivia_8.php'
p105
sS'd5c64c978fac4742de1e0231899ab6d0'
p106
S'http://www.history.com/topics/operation-barbarossa'
p107
sS'f1e334eb4e363ba1cff94ab726e32e0e'
p108
S'http://www.world-war-2.info/figures/erwin-von-witzleben.php'
p109
sS'afd2b23be930567866bbc58e8ffc28c5'
p110
S'http://en.wikipedia.org/wiki/A-A_line'
p111
sS'02c07c8b33a20edb8e9875de4e2b42fa'
p112
S'http://en.wikipedia.org/wiki/Stalingrad'
p113
sS'20e238d64ae02f98ea8d41a32ea358e3'
p114
S'http://www.world-war-2.info/aircraft/aircraft_27.php'
p115
sS'0bdc7c2248704d7d9bdc0b7529f411cb'
p116
S'http://www.world-war-2.info/aircraft/aircraft_4.php'
p117
sS'd47028675a0fd0f7d5e680ffd2ce2a4d'
p118
S'http://en.wikipedia.org/wiki/Battle_of_Voronezh_(1942)'
p119
sS'cd909d77dd2b0b6e8c8959d614d937d8'
p120
S'http://www.world-war-2.info/aircraft/aircraft_78.php'
p121
sS'e6ba44eb37f5905ca82cb4fde11fcd31'
p122
S'http://en.wikipedia.org/wiki/Operation_Braunschweig'
p123
sS'03b5ab5773c3f3fe1377430670dc9d24'
p124
S'http://en.wikipedia.org/wiki/Tatsinskaya_Raid'
p125
sS'0acfef832fd2e4c2e99b973f7c04cd01'
p126
S'http://en.wikipedia.org/wiki/Index_of_World_War_II_articles_(L)'
p127
sS'a0b91280fd3f66f0f3758c751d868bba'
p128
S'http://www.world-war-2.info/figures/japanese-military-leaders.php'
p129
sS'142ff0ed9d9e15929258a9108914b21c'
p130
S'http://www.bbc.co.uk/dna/ww2/A1057547'
p131
sS'027aa7267dd52f57bf70b535ddf2170d'
p132
S'http://www.world-war-2.info/figures/robert-saunby.php'
p133
sS'35aeaa206c1d237bc702eeb345e3163e'
p134
S'http://www.world-war-2.info/aircraft/aircraft_10.php'
p135
sS'0818b5aa36d4d776cde92b252aa61402'
p136
S'http://en.wikipedia.org/wiki/File:WW2-Holocaust-Poland.PNG'
p137
sS'5ea05d9b5bd86cc38a87dcd3963bfd40'
p138
S'http://www.ibiblio.org/hyperwar/CBI/index.html'
p139
sS'fc210514edd908d5afcb3612bf877036'
p140
S'http://www.world-war-2.info/trivia/trivia_6.php'
p141
sS'2fb71968a11fa86dd1bc50d30bcc2154'
p142
S'http://en.wikipedia.org/wiki/File:Map_Battle_of_Stalingrad-en.svg'
p143
sS'bfd12e4f0b28c06906671f42f6d2377c'
p144
S'http://www.world-war-2.info/figures/guy-gibson.php'
p145
sS'645f0413dd329a6e12f39e5269fcb1d2'
p146
S'http://www.world-war-2.info/battles/bt_14.php'
p147
sS'12787bea7733cd20b984fd09cd2fb86a'
p148
S'http://www.world-war-2.info/battles/'
p149
sS'38dbf1d4099ea21cdc2398aefa73ac18'
p150
S'http://en.wikipedia.org/wiki/Volgograd'
p151
sS'8e70725ff071c1745cb52f20216e673e'
p152
S'http://www.world-war-2.info/trivia/trivia_1.php'
p153
sS'e5cee7d5d007c4f3f33acac72661e738'
p154
S'http://www.history.com/topics/world-war-ii/battle-of-kursk/print'
p155
sS'861e95a4141a300b9fb15485cb55e540'
p156
S'http://www.world-war-2.info/aircraft/aircraft_72.php'
p157
sS'966fc3e55f53ab46e1327b3cd1d1453d'
p158
S'http://www.world-war-2.info/poems/poems_19.php'
p159
sS'c7ced20a9e44fcc29d0c75f661769524'
p160
S'http://en.wikipedia.org/wiki/North_African_Campaign'
p161
sS'59ad94cdba2bb789474b07fe3dc35594'
p162
S'http://en.wikipedia.org/wiki/Destroyer'
p163
sS'14b6bea23bbc6567f05111e70fd302ae'
p164
S'http://www.world-war-2.info/figures/hisaichi-terauchi.php'
p165
sS'c3f92b28cc5fbda2dd2f4089adee6e94'
p166
S'http://en.wikipedia.org/wiki/Italian_Army_in_Russia'
p167
sS'549ee26227fb03e67677d4c4c4347b2f'
p168
S'http://www.world-war-2.info/figures/hermann-balck.php'
p169
sS'adfcbbecb087f9e3d3e42e8d211bef5e'
p170
S'http://en.wikipedia.org/wiki/Lend-Lease'
p171
sS'f79cb18e8ba97295424571aef912045b'
p172
S'http://en.wikipedia.org/wiki/Hazi_Aslanov'
p173
sS'baee78f1c3199d4c52f5af2d649560e3'
p174
S'http://en.wikipedia.org/wiki/Erwin_K%C3%B6nig'
p175
sS'47a1e6ec5fe8b7ea21d1f9b8d7e904b7'
p176
S'http://www.world-war-2.info/aircraft/aircraft_11.php'
p177
sS'afcb848ecd0c893ba0be8f07849a773d'
p178
S'http://en.wikipedia.org/wiki/62nd_Army_(Soviet_Union)'
p179
sS'f726eaeadf598c1e51f51d779b968493'
p180
S'http://www.world-war-2.info/submarines/'
p181
sS'c7b3891edfc119edac4c777a57170f85'
p182
S'http://en.wikipedia.org/wiki/File:Second_Sino-Japanese_War_WW2.png'
p183
sS'4dd8243575c7b33a6a81feb6134d861c'
p184
S'http://en.wikipedia.org/wiki/Red_Army_order_of_battle_at_the_Battle_of_Stalingrad'
p185
sS'732f4fc8c7423e1363f16d3fe5e06529'
p186
S'http://en.wikipedia.org/wiki/Hiwi_(volunteer)'
p187
sS'04add598d39bab8200c8d22b86f134cb'
p188
S'http://en.wikipedia.org/wiki/4th_Panzer_Group'
p189
sS'2c5c9b70a7a53c4a528090d78a873c7f'
p190
S'http://www.history.com/topics/us-home-front-during-world-war-ii'
p191
sS'96434ca270fc85bf0c64b80105e9359c'
p192
S'http://en.wikipedia.org/wiki/Stanis%C5%82aw%C3%B3w_Ghetto'
p193
sS'8601127dcde0c737eaa26e8b8f3352af'
p194
S'http://en.wikipedia.org/wiki/Gumrak'
p195
sS'de4111c90771224129a4f839d0ecbaa2'
p196
S'http://en.wikipedia.org/wiki/Pitomnik_Airfield'
p197
sS'ea9b69ab779d014ad47bb57282e7a877'
p198
S'http://www.history.com/topics/us-presidents/harry-truman/print'
p199
sS'765d45e8f52ced408888d8859b634ce3'
p200
S'http://www.world-war-2.info/battles/bt_12.php'
p201
sS'91949ab2e1fbde88822f588a6ab4b24c'
p202
S'http://en.wikipedia.org/wiki/File:Bundesarchiv_Bild_183-F0316-0204-005,_Russland,_Paulus_in_Kriegsgefangenschaft.jpg'
p203
sS'9246bda36ccbd2c4488a2d878d34b9c0'
p204
S'http://www.world-war-2.info/figures/jeff-west.php'
p205
sS'bb33382c4ee20381a6d262b62996b977'
p206
S'http://en.wikipedia.org/wiki/World_War_II_persecution_of_Serbs'
p207
sS'482d5bc68d09adf104c7b3e1df551116'
p208
S'http://en.wikipedia.org/wiki/United_States_Army_Rangers'
p209
sS'e59f2ed62ef821079abe6603eba71013'
p210
S'http://en.wikipedia.org/wiki/List_of_places_named_after_Joseph_Stalin'
p211
sS'aa341386c114f4244918ef08ed2acd96'
p212
S'http://en.wikipedia.org/wiki/Pavlov%27s_House'
p213
sS'2a7d342bd7ed7f2c0c10c4481f472c7f'
p214
S'http://www.world-war-2.info/aircraft/aircraft_48.php'
p215
sS'918dcc9930a6af74f5d9cc9f837cfe93'
p216
S'http://en.wikipedia.org/wiki/File:OperationLittleSaturn.PNG'
p217
sS'554eb89c19d4c6437cb2453fb220c897'
p218
S'http://en.wikipedia.org/wiki/Andrey_Yeryomenko'
p219
sS'180a1a6f0b5fe756a3bd0dab5577945b'
p220
S'http://www.world-war-2.info/figures/maurice-gamelin.php'
p221
sS'73235dfd2f79b71ed310e883595dc327'
p222
S'http://en.wikipedia.org/wiki/Friedrich_Paulus'
p223
sS'9379290775ec12156ac9544c9e627221'
p224
S'http://en.wikipedia.org/wiki/Forced_labor_in_Germany_during_World_War_II'
p225
sS'104fc3341ad2aef77537d788d26dc694'
p226
S'http://www.world-war-2.info/figures/soemu-toyoda.php'
p227
sS'3e527484bf266f3c0a0ddacba500eaea'
p228
S'http://www.world-war-2.info/figures/douglas-bader.php'
p229
sS'f91365073fb8b296e2365185c75e7da4'
p230
S'http://www.world-war-2.info/weapons/wp_11.php'
p231
sS'2c3f221943007df405889e1e28dd1cc4'
p232
S'http://www.world-war-2.info/poems/poems_22.php'
p233
sS'f4652bc15a06b2735ccbc5338e4a4a39'
p234
S'http://en.wikipedia.org/wiki/Brooks%E2%80%93Baxter_War'
p235
sS'5c634f3105e87181be4de80610a5172e'
p236
S'http://en.wikipedia.org/wiki/File:StalingradRus.jpg'
p237
sS'9ec5875c6388165dfbdd103f432d7002'
p238
S'http://en.wikipedia.org/wiki/Aleksandr_Vasilevsky'
p239
sS'f440262f5c221db8ff294f2e27b74f5f'
p240
S'http://www.combinedfleet.com/'
p241
sS'79b0fdcf929714c81b965942ef6de261'
p242
S'http://www.world-war-2.info/aircraft/aircraft_38.php'
p243
sS'fa863286d1b806b4c45d36a4dc9bc33a'
p244
S'http://www.world-war-2.info/poems/poems_26.php'
p245
sS'08aecb85e4720ef048e1115a769a422e'
p246
S'http://www.world-war-2.info/aircraft/aircraft_37.php'
p247
sS'fad5c80e8ddfc5181b79dac9163890c9'
p248
S'http://en.wikipedia.org/wiki/Operation_Wintergewitter'
p249
sS'3fda9a436f0a522bac4b79c9f690910c'
p250
S'http://en.wikipedia.org/wiki/File:German_Summer_Offensive,_24_July-18_November.PNG'
p251
sS'9d11d0996eae3554ce1d81f657a0bf2c'
p252
S'http://en.wikipedia.org/wiki/Axis_order_of_battle_at_the_Battle_of_Stalingrad'
p253
sS'f3fd991602ca98763145990932b66968'
p254
S'http://en.wikipedia.org/wiki/RAF_Intelligence'
p255
sS'ee494a0d8212fc58bd96e6b7ac82f1f2'
p256
S'http://en.wikipedia.org/wiki/Index_of_World_War_II_articles_(B)'
p257
sS'67bbbb5706044ff4bcd3bffbd1888b09'
p258
S'http://en.wikipedia.org/wiki/Stalingrad_(1993_film)'
p259
sS'56321ac7fa71691ea4613ff6443ea415'
p260
S'http://www.world-war-2.info/aircraft/aircraft_13.php'
p261
sS'856456cf04a98809d21529646ed96c2a'
p262
S'http://en.wikipedia.org/wiki/Operation_Koltso'
p263
sS'12920945b9c82103aa1e0b9c7123c82d'
p264
S'http://www.world-war-2.info/aircraft/aircraft_45.php'
p265
sS'bd2a6a67cb80836246dfccc22fec87d7'
p266
S'http://en.wikipedia.org/wiki/IAR_80'
p267
sS'3b1269eb010d2ebab90005a34a154bbc'
p268
S'http://www.world-war-2.info/aircraft/aircraft_18.php'
p269
sS'cf7c0c59c23b21902b8b5abb9099bd04'
p270
S'http://en.wikipedia.org/wiki/Air_warfare_of_World_War_II'
p271
sS'9aa5b6f0fc79ebe63a16a5e40a6ddd91'
p272
S'http://www.world-war-2.info/aircraft/aircraft_73.php'
p273
sS'928fcda7d9b95f83b05506716ef6881e'
p274
S'http://en.wikipedia.org/wiki/369th_(Croatian)_Reinforced_Infantry_Regiment'
p275
sS'1323f94a180969edef15503c32d31588'
p276
S'http://www.world-war-2.info/aircraft/aircraft_79.php'
p277
sS'61457225d9539eddf7b1dbb71e7f8717'
p278
S'http://www.world-war-2.info/aircraft/aircraft_65.php'
p279
sS'cf41f3d5efc09fcfff14e9f3daf4165f'
p280
S'http://en.wikipedia.org/wiki/55th_Fighter_Wing'
p281
sS'06c21fc5f21eb1f9b53b76732e838375'
p282
S'http://en.wikipedia.org/wiki/Marko_Mesi%C4%87_(1901%E2%80%931982)'
p283
sS'8701fd55cf46e5acaecdd7675986b55b'
p284
S'http://en.wikipedia.org/wiki/Medal_For_the_Victory_Over_Germany'
p285
sS'dcdaa031a22e88c575b40479dbadbd37'
p286
S'http://en.wikipedia.org/wiki/Template:Campaignbox_Battle_of_Stalingrad'
p287
sS'59cbd777da8730a9906fd3f5703b6024'
p288
S'http://en.wikipedia.org/wiki/Italian_war_in_Soviet_Union,_1941%E2%80%931943'
p289
sS'c604746d1eef335b79f14c52726e9362'
p290
S'http://www.world-war-2.info/aircraft/aircraft_67.php'
p291
sS'7a06afeb909ee9b1b2a14008455d7fcb'
p292
S'http://en.wikipedia.org/wiki/M1_helmet'
p293
sS'11fc4dfc32cb64cf98d5387728b883df'
p294
S'http://en.wikipedia.org/wiki/File:Bundesarchiv_Bild_101I-218-0501-27,_Russland-S%C3%BCd,_rum%C3%A4nische_Soldaten.jpg'
p295
sS'2bb8b858a98d3ac4592d6a45579f331f'
p296
S'http://en.wikipedia.org/wiki/Extermination_camps'
p297
sS'dc33d1f43ea41603f4cd1ccfee852a42'
p298
S'http://en.wikipedia.org/wiki/German_invasion_of_Greece'
p299
sS'aba6c87d853b9bf7b4b4481ba7d5068a'
p300
S'http://en.wikipedia.org/wiki/List_of_military_operations_on_the_Eastern_Front_of_World_War_II'
p301
sS'd01f83244729b90f324ff908862475ae'
p302
S'http://www.history.com/topics/world-war-ii'
p303
sS'1150c9b65ebb3db2c07b83a5372ba90c'
p304
S'http://www.history.com/news/history-lists/7-unusual-military-units'
p305
sS'b031b617c1ee1d18bb8c90e5a6d724c0'
p306
S'http://en.wikipedia.org/wiki/Stalingrad_(disambiguation)'
p307
sS'e1d34ed5215b69799b3663252af35196'
p308
S'http://www.world-war-2.info/figures/henning-von-tresckow.php'
p309
sS'5106af73183825217e0827f5657e3d78'
p310
S'http://www.world-war-2.info/figures/miles-dempsey.php'
p311
sS'd52c17a30724315b36deeb799b1d0c3f'
p312
S'http://www.world-war-2.info/figures/kanji-ishiwari.php'
p313
sS'6c50d370e728658dab963de6a4cb7fc3'
p314
S'http://en.wikipedia.org/wiki/Italian_war_in_Soviet_Union,_1941-1943'
p315
sS'7f2c85bede567e1187afa3dc6a13c176'
p316
S'http://en.wikipedia.org/wiki/Battle_of_the_Kerch_Peninsula'
p317
sS'0af11d77bebc186ce9f8b72b71eeaa7b'
p318
S'http://www.world-war-2.info/weapons/wp_8.php'
p319
sS'881f7528053d5b1a28bee6bd30aa14dd'
p320
S'http://www.world-war-2.info/figures/gotthard-heinrici.php'
p321
sS'103594912a906c8c588cbf1ce787e930'
p322
S'http://en.wikipedia.org/wiki/The_Holocaust_in_Latvia'
p323
sS'd9d7ed0457503558f61233e10cd2e83f'
p324
S'http://www.world-war-2.info/aircraft/aircraft_44.php'
p325
sS'8d0ddd4b731db82747e9b877444ba73b'
p326
S'http://en.wikipedia.org/wiki/Hitler_Stalingrad_Speech'
p327
sS'30f540d8809e86a2fe5bc85c5201bfc0'
p328
S'http://www.world-war-2.info/aircraft/aircraft_58.php'
p329
sS'fd7096840056ca3a94817299bcab71d9'
p330
S'http://www.world-war-2.info/aircraft/aircraft_2.php'
p331
sS'11058fcb25f42784a730f2fefa7691c2'
p332
S'http://www.world-war-2.info/aircraft/aircraft_12.php'
p333
sS'7fa9175f9f63834af605b21ba5eb2408'
p334
S'http://en.wikipedia.org/wiki/Battle_of_Port_Lyautey'
p335
sS'cba93dd2f8ec3647b93e88dd89722ecc'
p336
S'http://www.world-war-2.info/figures/charles-de-gaulle.php'
p337
sS'9b7bb1422ca85ef6ddd53e6c1e463e51'
p338
S'http://en.wikipedia.org/wiki/File:Streetfight_Stralingrad01.jpg'
p339
sS'192c7fa08a97a30a79611b9dc7b922b2'
p340
S'http://www.world-war-2.info/aircraft/aircraft_62.php'
p341
sS'967fc86e03cd46af7711576753723547'
p342
S'http://www.history.com/topics/world-war-ii/tuskegee-airmen/print'
p343
sS'd5a8cebc46db875899bccb8c5b821f7f'
p344
S'http://en.wikipedia.org/wiki/44th_Infantry_Division_(Wehrmacht)'
p345
sS'a61e5fc9db61318896beb393bceb6deb'
p346
S'http://en.wikipedia.org/wiki/Arthur_Schmidt_(soldier)'
p347
sS'ef82362098982c6463640a5f8d26483d'
p348
S'http://www.world-war-2.info/aircraft/aircraft_61.php'
p349
sS'8327ee8b7678a0249e2734e9764ba010'
p350
S'http://en.wikipedia.org/wiki/Archibald_Percival_Wavell,_1st_Earl_Wavell'
p351
sS'a6a896fe2f50da6f5e30f83a82383a98'
p352
S'http://en.wikipedia.org/wiki/Finnish_Air_Force'
p353
sS'e51a68a23c019b8bf31b0ffdc9b0cc54'
p354
S'http://www.world-war-2.info/figures/french-military-leaders.php'
p355
sS'60286b37fc24861d21786a5725e658a6'
p356
S'http://www.world-war-2.info/poems/poems_37.php'
p357
sS'46e24ed222f59e55c53d58ad16641e23'
p358
S'http://www.world-war-2.info/figures/walter-bedell-smith.php'
p359
sS'6d89fe41bd5060e316afb2cc3b98ff80'
p360
S'http://www.world-war-2.info/battles/bt_15.php'
p361
sS'06e2c34bc70dce79744eef59f7471b52'
p362
S'http://en.wikipedia.org/wiki/Category:Joseph_Stalin'
p363
sS'02cd0b1cd697f64830fc7e14a5d7cd3b'
p364
S'http://en.wikipedia.org/wiki/Jagdgeschwader_3'
p365
sS'79d5f1a96cb29c8dec97dddfb4caaf4c'
p366
S'http://en.wikipedia.org/wiki/Vasily_Chuikov'
p367
sS'9c27f6daa4282cab69112d74991ef8d5'
p368
S'http://en.wikipedia.org/wiki/Portal:United_States/Selected_article'
p369
sS'6e1ab24004b9dd28b9a72803be6ec50e'
p370
S'http://www.history.com/topics/american-women-in-world-war-ii'
p371
sS'0636615302678fa18f168b91ae940631'
p372
S'http://www.history.com/topics/world-war-ii/photos'
p373
sS'46e1a5a62fad2f87c7247faeeadc9080'
p374
S'http://www.world-war-2.info/aircraft/aircraft_80.php'
p375
sS'cedf7fe8fb371d58b86dcc58d8604225'
p376
S'http://www.world-war-2.info/figures/archibald-wavell.php'
p377
sS'e0ee47f0af362fadfed454069335ce40'
p378
S'http://www.world-war-2.info/figures/karl-stulpnagel.php'
p379
sS'197baea20dcfcff17d26ba1eace11b14'
p380
S'http://en.wikipedia.org/wiki/File:RIAN_archive_44732_Soviet_soldiers_attack_house.jpg'
p381
sS'99f19c6067f52ff5421eee21105d61f8'
p382
S'http://www.world-war-2.info/aircraft/aircraft_1.php'
p383
sS'1a6f5d80bc01714bdb2804f31dd2ae53'
p384
S'http://fotovski.wordpress.com/2010/09/23/stalingrad-savasi/'
p385
sS'287aa0d3614472c731507dd23dc2cfce'
p386
S'http://www.world-war-2.info/figures/hermann-goering.php'
p387
sS'2841531fb894e5cd29e1db890be37080'
p388
S'http://www.world-war-2.info/weapons/wp_4.php'
p389
sS'a8d64d23a6ab96485eee017e3d1a6570'
p390
S'http://en.wikipedia.org/wiki/Sinking_of_Prince_of_Wales_and_Repulse'
p391
sS'8666c6558281e9af67d35cbb9078da81'
p392
S'http://en.wikipedia.org/wiki/Army_(Soviet_Army)'
p393
sS'06ce9670974746af691f86a19d08766f'
p394
S'http://en.wikipedia.org/wiki/Front_(Soviet_Army)'
p395
sS'f607b16d9db2062b5249ef7d1ca76ddb'
p396
S'http://en.wikipedia.org/wiki/Book:World_War_II'
p397
sS'59fe73b52912d532ba442d2abd60637e'
p398
S'http://en.wikipedia.org/wiki/51st_Army_(Soviet_Union)'
p399
sS'2f3298bf80089e8c2277d135aea71c65'
p400
S'http://www.history.com/topics/world-war-ii/battle-of-el-alamein/print'
p401
sS'15cb631a2152baaee20833f80dfd9733'
p402
S'http://en.wikipedia.org/wiki/Death_camps'
p403
sS'11f50927d5f2b1f32db99bfbc9067f8e'
p404
S'http://www.world-war-2.info/aircraft/aircraft_23.php'
p405
sS'c5bae389a0ffff016e5d8b6a3c8d8747'
p406
S'http://www.world-war-2.info/figures/joseph-stilwell.php'
p407
sS'0124d0c444935b4bb00906658d958874'
p408
S'http://en.wikipedia.org/wiki/File:Bundesarchiv_Bild_183-J20510,_Russland,_Kampf_um_Stalingrad,_Luftangriff_crop.jpg'
p409
sS'f40f215a98ee848d0372a8a12c68e269'
p410
S'http://en.wikipedia.org/wiki/Stalingrad_Madonna'
p411
sS'77caa3f4c3da9836892498105770f8c5'
p412
S'http://en.wikipedia.org/wiki/Nikolai_Fyodorovich_Vatutin'
p413
sS'bbf61cee71a7d7ba947df809bc4f5e0f'
p414
S'http://en.wikipedia.org/wiki/Fall_Blau'
p415
sS'e3aba3fd7da630556cadf9b07ff4f5ac'
p416
S'http://en.wikipedia.org/wiki/Edward_Heath'
p417
sS'8a6cf6b7adfc3739bfb94006dbb2eba3'
p418
S'http://www.world-war-2.info/weapons/wp_1.php'
p419
sS'1b07d4249e9209ee1a9112e5d0335bde'
p420
S'http://www.world-war-2.info/trivia/trivia_11.php'
p421
sS'f9c4b7cd39e5c85c7095eae3652a884f'
p422
S'http://www.world-war-2.info/poems/poems_12.php'
p423
sS'190f637fc625686dae7b9e47219a2860'
p424
S'http://www.world-war-2.info/figures/shinichi-tanaka.php'
p425
sS'541d9705d7f472e8864633a9f61f68f4'
p426
S'http://www.world-war-2.info/aircraft/aircraft_17.php'
p427
sS'9ff6f96710f67444b79c409eddf89eff'
p428
S'http://www.world-war-2.info/poems/poems_34.php'
p429
sS'000890f32c1c1446615341e1275939ec'
p430
S'http://www.world-war-2.info/trivia/trivia_2.php'
p431
sS'b5d7c5dd02f738de8ba1f87ab6b222e2'
p432
S'http://www.world-war-2.info/aircraft/aircraft_42.php'
p433
sS'067fe8610b2e1073b9d4afe5e0aa347b'
p434
S'http://en.wikipedia.org/wiki/Ukrainian-German_collaboration_during_World_War_II'
p435
sS'504b769dc8267e6b8eedc9ba07b88c9c'
p436
S'http://en.wikipedia.org/wiki/Archibald_Wavell,_1st_Earl_Wavell'
p437
sS'b9367e69c26778cb39896d5ce32f5168'
p438
S'http://en.wikipedia.org/wiki/File:Stalingrad-dead_bodies.jpg'
p439
sS'644ee71c9bf40ca3e166bb190f130afd'
p440
S'http://en.wikipedia.org/wiki/Vasily_Zaytsev'
p441
sS'f6dfceffbb9a0e78e4283da508deb65e'
p442
S'http://www.world-war-2.info/figures/adolf-galland.php'
p443
sS'2cc376fe0579e4f864c6e13237257edd'
p444
S'http://www.world-war-2.info/figures/fedor-von-bock.php'
p445
sS'6eee154d1596bda0b8379a4d01522101'
p446
S'http://www.world-war-2.info/figures/hans-hube.php'
p447
sS'5e2fc4af6ad4a5fabddfa7f40561fd98'
p448
S'http://www2.h-net.msu.edu/~museum/stalingrad.html'
p449
sS'ff7e5400ed9140a2afdb4dda64cb8c84'
p450
S'http://en.wikipedia.org/wiki/Vasily_Badanov'
p451
sS'7d7740a7f3666696a22cfb16f4ef0288'
p452
S'http://www.world-war-2.info/aircraft/aircraft_24.php'
p453
sS'fc80eb41cabed4f20b9af42af1975d0a'
p454
S'http://en.wikipedia.org/wiki/Battle_of_Greece'
p455
sS'b73de928aa6199716473235545709a1b'
p456
S'http://en.wikipedia.org/wiki/Rodion_Malinovsky'
p457
sS'adda8e72a650a73a2ab96da397172832'
p458
S'http://www.world-war-2.info/aircraft/aircraft_43.php'
p459
sS'bc3dd3fb4411563c519e746b52d6d904'
p460
S'http://en.wikipedia.org/wiki/Numbered_Air_Force'
p461
sS'3a73ca33d9956ef330c72af8490de0b6'
p462
S'http://en.wikipedia.org/wiki/Seventh_Air_Force'
p463
sS'dbe1bca83dec3471a62f614063586102'
p464
S'http://en.wikipedia.org/wiki/Kalach-na-Donu'
p465
sS'96cb0218990b31538c27aff1e1d967f2'
p466
S'http://www.world-war-2.info/figures/basil-liddel-hart.php'
p467
sS'fc7b25f9aca3914f9311d3db946ec275'
p468
S'http://en.wikipedia.org/wiki/Template:Campaignbox_Operation_Blue_to_3rd_Kharkov'
p469
sS'5a78667f7f8a18d21d6847cb312cb0d0'
p470
S'http://en.wikipedia.org/wiki/List_of_officers_and_commanders_in_the_Battle_of_Stalingrad'
p471
sS'cdceeb66a226e7aa3d081b48e4dce618'
p472
S'http://en.wikipedia.org/wiki/Great_Construction_Projects_of_Communism'
p473
sS'78fb61637cdc5ded3c8b11889cc2b2d6'
p474
S'http://en.wikipedia.org/wiki/Army_Group_Don'
p475
sS'1789330744c5906c8527ec12612f5d94'
p476
S'http://en.wikipedia.org/wiki/Death_camp'
p477
sS'84fc43cf1e5cf82be1c57d04ca732af0'
p478
S'http://www.history.com/news/6-things-you-may-not-know-about-the-world-series'
p479
sS'a655174aa33ca5f67283aa23faa8dcce'
p480
S'http://en.wikipedia.org/wiki/George_Air_Force_Base'
p481
sS'8eabacf2fed6069c99d535dd8341990c'
p482
S'http://www.world-war-2.info/figures/alexander-von-falkenhausen.php'
p483
sS'a8659dc99fa68dd3202f44e7fbe97e48'
p484
S'http://en.wikipedia.org/wiki/Urban_warfare'
p485
sS'64a84938880300aa73c2c4e3ba0da76a'
p486
S'http://en.wikipedia.org/wiki/File:World-War-II-military-deaths-in-Europe-by-theater-year.png'
p487
sS'62b8fffdc69a50d8147c0a2700338d1b'
p488
S'http://en.wikipedia.org/wiki/Independent_State_of_Croatia'
p489
sS'aeae9a4f9c7a5a5ad33a37bfac07c1e2'
p490
S'http://www.world-war-2.info/aircraft/aircraft_39.php'
p491
sS'21a3116bc11f343c8a05d74710c001ca'
p492
S'http://en.wikipedia.org/wiki/Soviet_occupations'
p493
sS'1a82d353887a5e50e00bbe088c4913c7'
p494
S'http://en.wikipedia.org/wiki/File:Stalingradska_zemlja.jpg'
p495
sS'beba762753c39b8a938024dcdbbef24f'
p496
S'http://en.wikipedia.org/wiki/4th_Mechanized_Corps_(Soviet_Union)'
p497
sS'ea053aac6538daa8f3d90ba212dc8ac6'
p498
S'http://en.wikipedia.org/wiki/File:IAR-80.jpg'
p499
sS'17650b8da29a4b1101d2472a8545514e'
p500
S'https://www.youtube.com/watch?v=cU6OK1zSxKg'
p501
sS'8244a2566a0b2ac88a4f27a038fb552f'
p502
S'http://en.wikipedia.org/wiki/Danish_krone'
p503
sS'544f420493a77808f10a68320d8a4447'
p504
S'http://en.wikipedia.org/wiki/Nordic_countries_in_World_War_II'
p505
sS'284384bf03240f26d73d202c59bab9b0'
p506
S'http://en.wikipedia.org/wiki/Hero_City'
p507
sS'83a976bec023019416a9a4535d21bee8'
p508
S'http://www.history.com/topics/world-war-ii/battle-of-stalingrad'
p509
sS'c5fec4d6340fd60d7fb5aaaa1822844b'
p510
S'http://en.wikipedia.org/wiki/51st_Army'
p511
sS'db95b666fd2feb8aaaea16b4dfa28cc9'
p512
S'http://en.wikipedia.org/wiki/Province'
p513
sS'c8078535f4efa59f24adf1cc6d348ebd'
p514
S'http://en.wikipedia.org/wiki/Battle_of_the_Admin_Box'
p515
sS'ea237f05f0e11fb92ad5085adfae17ae'
p516
S'http://www.world-war-2.info/figures/wilhelm-groener.php'
p517
sS'4c0e6dfc7b2eb34afac096a0808e5099'
p518
S'http://en.wikipedia.org/wiki/Template:Battle_of_Stalingrad'
p519
sS'ef5c9f34e1201ceb6367b71f5d568dcc'
p520
S'http://www.world-war-2.info/figures/harry-broadhurst.php'
p521
sS'57f9e9410612fe23ab625dc897547eec'
p522
S'http://www.nzhistory.net.nz/node/14227'
p523
sS'7e6cd7a3d78aa2be0379fcf93503422c'
p524
S'http://en.wikipedia.org/wiki/Guszt%C3%A1v_Vit%C3%A9z_J%C3%A1ny'
p525
sS'b0c3a09ce6a31d1fde95aada549774ba'
p526
S'http://www.bbc.co.uk/history/worldwars/wwtwo/soviet_german_war_01.shtml'
p527
sS'16e4570e722cbcd4e8bc4716d26416ba'
p528
S'http://en.wikipedia.org/wiki/369th_Croatian_Reinforced_Infantry_Regiment_(Wehrmacht)'
p529
sS'860bb3a212b37c40fb3206c5725ef3a4'
p530
S'http://en.wikipedia.org/wiki/Karl_Strecker'
p531
sS'acfbe4b0f87949728e1ac6938c828fbb'
p532
S'http://en.wikipedia.org/wiki/Red_Orchestra_2:_Heroes_of_Stalingrad'
p533
sS'48c9bfd5985b16fa94d65347028202fe'
p534
S'http://www.world-war-2.info/aircraft/aircraft_52.php'
p535
sS'a757b3dcc969b09fb0e7d9000169cf1d'
p536
S'http://www.world-war-2.info/trivia/trivia_4.php'
p537
sS'aa5b2a06a6ef68e112cac9f441203d0c'
p538
S'http://www.world-war-2.info/aircraft/aircraft_68.php'
p539
sS'44ce56ea688ae022f8feb13aab9ba173'
p540
S'http://en.wikipedia.org/wiki/Korean_yen'
p541
sS'7bcf00ea2961a3770dab6129958c5683'
p542
S'http://en.wikipedia.org/wiki/55th_Bombardment_Wing_(World_War_II)'
p543
sS'fbefe9c64876742a882a68b065938a13'
p544
S'http://www.world-war-2.info/aircraft/aircraft_70.php'
p545
sS'29c9bd33fd2bcd4220ad62e0aec7a0b0'
p546
S'http://en.wikipedia.org/wiki/Poland'
p547
sS'b857d85cce833b8e63ad57d0574766d1'
p548
S'http://www.world-war-2.info/aircraft/aircraft_60.php'
p549
sS'bc3fbc367fb00a95f2215853a2ee9ac6'
p550
S'http://en.wikipedia.org/wiki/Case_Blue'
p551
sS'20767d38590e4efb15c8d8bd77d273ef'
p552
S'http://en.wikipedia.org/wiki/Fyodor_Tolbukhin'
p553
sS'67392bdb64f93e44007f2f1b1f0be9f7'
p554
S'http://www.world-war-2.info/figures/ira-eaker.php'
p555
sS'e775164916a5559e10155458478f27cb'
p556
S'http://en.wikipedia.org/wiki/297th_Infantry_Division_(Wehrmacht)'
p557
sS'11e08197c06d5ee8e495666074e04275'
p558
S'http://en.wikipedia.org/wiki/File:Bundesarchiv_Bild_183-E0406-0022-011,_Russland,_deutscher_Kriegsgefangener.jpg'
p559
sS'39046a91805c99c113b6f052df053229'
p560
S'http://www.world-war-2.info/aircraft/aircraft_69.php'
p561
sS'63476520f39ea3960b39e458c9ebbcc2'
p562
S'http://www.history.com/photos/hiroshima-and-nagasaki'
p563
sS'f8b3914c1fcd044da01c9ef1fcddfb6a'
p564
S'http://en.wikipedia.org/wiki/Operation_Marita'
p565
sS'b6b0c9e64fb01758408e1159b99d2009'
p566
S'http://www.world-war-2.info/figures/antoine-bethouart.php'
p567
sS'31b54b83f30d9a69d6a9e3d55fbe687e'
p568
S'http://www.world-war-2.info/figures/carleton-wright.php'
p569
sS'c593985c72f340e512492f69f5fc9668'
p570
S'http://en.wikipedia.org/wiki/Honourable_Artillery_Company'
p571
sS'dce74821c567c031d2afb867bc36b05d'
p572
S'http://en.wikipedia.org/wiki/File:RIAN_archive_602161_Center_of_Stalingrad_after_liberation.jpg'
p573
sS'40f8ba16f97f577cbf760d12ee53bc14'
p574
S'http://en.wikipedia.org/wiki/Battle_of_Buna-Gona'
p575
sS'ac87dbb505918942fccb49d135b1be86'
p576
S'http://en.wikipedia.org/wiki/Ferdinand_Porsche'
p577
sS'f93dce601e545abfc14ff26ae32872a9'
p578
S'http://en.wikipedia.org/wiki/Category:Airfields_of_the_Battle_of_Stalingrad'
p579
sS'bcd287791d34ee41d26278a308d37989'
p580
S'http://en.wikipedia.org/wiki/Conservatism'
p581
sS'd46e18c29d5e063620fea7f14688466f'
p582
S'http://www.world-war-2.info/figures/neil-richie.php'
p583
sS'afc65df5703bf689eb4f3405b1dc6bfb'
p584
S'http://www.world-war-2.info/battles/bt_17.php'
p585
sS'f2c2e92d437db851ef3bc8a7688de84c'
p586
S'http://en.wikipedia.org/wiki/49th_Wing'
p587
sS'baf634846c267d600622d04a87f65a83'
p588
S'http://en.wikipedia.org/wiki/79th_Infantry_Division_(Wehrmacht)'
p589
sS'e5d79c8f7e49d5ae432893bab1cecbdf'
p590
S'http://en.wikipedia.org/wiki/File:Bundesarchiv_Bild_183-B22436,_Russland,_Kampf_um_Stalingrad,_Ruinen.jpg'
p591
sS'646f9734f873bd6f0874a5224bd1196e'
p592
S'http://en.wikipedia.org/wiki/Military_history_of_the_United_Kingdom_during_World_War_II'
p593
sS'd7d1199fa27c3879651e803c32741396'
p594
S'http://www.world-war-2.info/figures/fabin-schlabrendorff.php'
p595
sS'02f35b4b82cb6b9fc985c326ac276945'
p596
S'http://www.world-war-2.info/figures/jisaburo-ozawa.php'
p597
sS'3b5e2256da42520ee2c1d09013527685'
p598
S'http://en.wikipedia.org/wiki/The_Battle_of_Stalingrad_(film)'
p599
sS'7e53d4d60d6f0d9d0c1a079984c05e6b'
p600
S'http://en.wikipedia.org/wiki/Lists_of_World_War_II_topics'
p601
sS'05f9d97c0d14ab297ad07dd84593752a'
p602
S'http://en.wikipedia.org/wiki/Nikolay_Dyatlenko'
p603
sS'be0e8e26bc26ea75dc5adb2efd218bf9'
p604
S'http://www.world-war-2.info/aircraft/aircraft_3.php'
p605
sS'd7c18fe5e0875f29665c36bc752ba84a'
p606
S'http://www.westpoint.edu/history/SitePages/WWII%20Asian%20Pacific%20Theater.aspx'
p607
sS'61bc330828f552e94acd6778a58350a4'
p608
S'http://en.wikipedia.org/wiki/Template_talk:Campaignbox_World_War_II'
p609
sS'49017a55daa44b6dcff54ceb1ffb0ad2'
p610
S'http://www.world-war-2.info/figures/masaki-honda.php'
p611
sS'252ee94acd06a0e40457f9c7096737df'
p612
S'http://en.wikipedia.org/wiki/Estonian_Auxiliary_Police'
p613
sS'728fa1881c8770cd561251d584597185'
p614
S'http://www.world-war-2.info/poems/poems_35.php'
p615
sS'3539ff54fd4bf411c9423d0f98ba0f75'
p616
S'http://en.wikipedia.org/wiki/Fallschirmj%C3%A4ger'
p617
sS'f45d2596b18f8b69d173ab15743049e3'
p618
S'http://en.wikipedia.org/wiki/Template_talk:Campaignbox_Battle_of_Stalingrad'
p619
sS'58d6f8dc80105c455920d4cabf497b65'
p620
S'http://en.wikipedia.org/wiki/Constantin_Constantinescu-Claps'
p621
sS'1c8c3b732e09b0119dc9265aa5b95da5'
p622
S'http://www.worldwar-2.net/timelines/war-in-europe/eastern-europe/eastern-europe-index-1942.htm'
p623
sS'40ece72b37d313e605827ec5cd4dc09e'
p624
S'http://www.world-war-2.info/aircraft/aircraft_74.php'
p625
sS'df5ece3a6b5122fde2d7011713bd382b'
p626
S'http://en.wikipedia.org/wiki/Operation_Saturn'
p627
sS'96cc40cddd356ca758a41cec3b9e28ec'
p628
S'http://www.history.com/topics/joseph-stalin/print'
p629
sS'ee6845cbab65fe6316b43f9adc7842bb'
p630
S'http://en.wikipedia.org/wiki/2nd_Guards_Army'
p631
sS'61a2ef2052fed9ef045dcab6d727be94'
p632
S'http://en.wikipedia.org/wiki/Forced_labour_under_German_rule_during_World_War_II'
p633
sS'ab920be3ce96138190f5049916ade02b'
p634
S'http://www.world-war-2.info/figures/william-sholto.php'
p635
sS'a6617f529a9c91d716091fb84ddb489b'
p636
S'http://en.wikipedia.org/wiki/Sasha_Filippov'
p637
sS'cf1951f9fde85230a54f809c87c2451b'
p638
S'http://en.wikipedia.org/wiki/Enemy_at_the_Gates'
p639
sS'c4b217c0588f303e435e021a8cc1e8ea'
p640
S'http://www.world-war-2.info/figures/erwin-rommel.php'
p641
sS'911a2f5266025d941e8a2eef71ad09ce'
p642
S'http://www.historyonthenet.com/ww2/causes.htm'
p643
sS'f1f2f34b02fc31c168868a851fc91490'
p644
S'http://www.world-war-2.info/aircraft/aircraft_19.php'
p645
sS'bfc73d2884999bef368fb7cf809925ea'
p646
S'http://www.world-war-2.info/figures/frank-fletcher.php'
p647
sS'f48b9e38b04b2ff5d17ce5f680fc2da5'
p648
S'http://en.wikipedia.org/wiki/Office_of_Strategic_Services'
p649
sS'f595e52b8537a47b5d5d488adb0b2c30'
p650
S'http://en.wikipedia.org/wiki/Italian_participation_in_the_Eastern_Front'
p651
sS'c85cfa8235eb6df59ff35a28f08cdd9f'
p652
S'http://en.wikipedia.org/wiki/John_Curtin'
p653
sS'64ed8b3c556693434388305c8b4b42c2'
p654
S'http://maps.omniatlas.com/europe/19421229/'
p655
sS'7f8f8b19b97dd8df29a660409e8e89e4'
p656
S'http://www.world-war-2.info/aircraft/aircraft_15.php'
p657
sS'0750210364dca7e26da3ffaa1caacfe2'
p658
S'http://en.wikipedia.org/wiki/53d_Fighter_Wing'
p659
sS'23460389e7e0b64f35cab026a2bb3c6b'
p660
S'http://www.world-war-2.info/aircraft/aircraft_5.php'
p661
sS'13d253c997f6bda91d7aacc5eb67ce4b'
p662
S'http://www.world-war-2.info/aircraft/aircraft_30.php'
p663
sS'2bb48d44225eff88abfeb6a5e251ceba'
p664
S'http://www.world-war-2.info/figures/karl-wolff.php'
p665
sS'2dea544f28e51dc820b0f58a582b92f0'
p666
S'http://www.world-war-2.info/aircraft/aircraft_81.php'
p667
sS'a3652b9ed3c29671721729edc2b3e9ce'
p668
S'http://en.wikipedia.org/wiki/Army_Group_B'
p669
sS'd911ceadaab1a100a27abd08e7726eff'
p670
S'http://en.wikipedia.org/wiki/6th_Army_(Wehrmacht)'
p671
sS'9fafddf85395704a694255ee883dbe2c'
p672
S'http://www.world-war-2.info/poems/poems_36.php'
p673
sS'fca800cfdef058d183055bf505915ea2'
p674
S'http://www.world-war-2.info/poems/poems_38.php'
p675
sS'94be10c927cc2a15d92541c38e6a6d5c'
p676
S'http://www.history.com/shows/wwii-in-hd/videos/world-war-ii-battle-of-stalingrad?m=518971be8380b'
p677
sS'03eaace8b841b7e19205e7105cd19a7d'
p678
S'http://en.wikipedia.org/wiki/Rotterdam'
p679
sS'a62a3b6177f77b657642bc3572dbe68d'
p680
S'http://www.awesomestories.com/history/battle-stalingrad'
p681
sS'e54ed47374f3ec610b11d1bfbc5dfb7f'
p682
S'http://www.world-war-2.info/'
p683
sS'ca11375f5d94c9bf38d7646c4ee16561'
p684
S'http://en.wikipedia.org/wiki/Destroyers'
p685
sS'4b5eba8fb06c163ceea09388a423750b'
p686
S'http://www.world-war-2.info/figures/clifford-mcewen.php'
p687
sS'8ed10e5138846fe57425f387474abc6d'
p688
S'http://en.wikipedia.org/wiki/305th_Infantry_Division_(Wehrmacht)'
p689
sS'24b1bfd9a3d15b127db0e0e9a6af6c33'
p690
S'http://www.world-war-2.info/aircraft/aircraft_53.php'
p691
sS'e9a3d057afdac6be971f9660b321e640'
p692
S'http://en.wikipedia.org/wiki/Timeline_of_World_War_II_(1942)'
p693
sS'2182801a43ce710e552c524bcb4b79c0'
p694
S'http://www.itnsource.com/shotlist//BHC_RTV/1943/01/04/BGU408300035/?'
p695
sS'91a66a024a26c79803da84117889b912'
p696
S'http://en.wikipedia.org/wiki/Gloster_Gladiator'
p697
sS'b2f36ebe4e4f9f4c3733bc09f5b5b828'
p698
S'http://en.wikipedia.org/wiki/Sword_of_Stalingrad'
p699
sS'a35ba7de5c7530a3211379c7b6eac7b0'
p700
S'http://en.wikipedia.org/wiki/Ukrainian_Air_Force'
p701
sS'3485905b3ca26d16e54d9407bdfc3ece'
p702
S'http://www.world-war-2.info/figures/alexander-vandegrift.php'
p703
sS'560d13bed8a65b90388d0ba59cff50aa'
p704
S'http://www.world-war-2.info/figures/walther-nehring.php'
p705
sS'e9da43d1cf297973a3d0ec4f604535c6'
p706
S'http://en.wikipedia.org/wiki/21st_Army_(Soviet_Union)'
p707
sS'3e92cd4037663ae27fbc43cd5045c633'
p708
S'http://www.world-war-2.info/aircraft/aircraft_47.php'
p709
sS'6aa9843fb500572f13f4354b01ab09c6'
p710
S'http://en.wikipedia.org/wiki/Operation_Fischreiher'
p711
sS'60de75fd80fc1c1112798c68607be9b5'
p712
S'http://www.world-war-2.info/trivia/trivia_16.php'
p713
sS'19119f3fab3cadcb7cbb97c4a2738ab1'
p714
S'http://en.wikipedia.org/wiki/Battle_of_Cape_Matapan'
p715
sS'772f113a42253bf07258123622ed7cae'
p716
S'http://www.world-war-2.info/propaganda/'
p717
sS'4315ef0a0fc474fc473a0675ef2eb272'
p718
S'http://www.world-war-2.info/posters/poster_16.php'
p719
sS'609b9eab5174b6145636a91b3287b4ce'
p720
S'http://www.world-war-2.info/poems/poems_9.php'
p721
sS'22d302bb1b9fed5091efaffdcd663d56'
p722
S'http://en.wikipedia.org/wiki/Talk:World_War_II/Infobox/Archive_9'
p723
sS'c34b1c8f1a1b135f4057124f3a231c6b'
p724
S'http://en.wikipedia.org/wiki/Harold_Alexander,_1st_Earl_Alexander_of_Tunis'
p725
sS'06341dc8b67ba3ee7ebb203fdfe5971b'
p726
S'http://en.wikipedia.org/wiki/Alexander_Edler_von_Daniels'
p727
sS'3ef3c435244f1c4c1ec921741e03dac3'
p728
S'http://www.world-war-2.info/figures/thomas-hart.php'
p729
sS'a0cae557c19b3a3917b65e85c1bfcf9a'
p730
S'http://www.world-war-2.info/trivia/trivia_9.php'
p731
sS'e07445f97454987036d66b5704c76939'
p732
S'http://www.world-war-2.info/figures/maurice-buckmaster.php'
p733
sS'cbaf702d274a2e8cf8806bcb75f86862'
p734
S'http://en.wikipedia.org/wiki/Dmitry_Lelyushenko'
p735
sS'7c4499ad7e6b3a51b4c2f9d7ba63320c'
p736
S'http://en.wikipedia.org/wiki/Albanian_Resistance_of_World_War_II'
p737
sS'dd840d916f784bb09e49e481dde99d17'
p738
S'http://en.wikipedia.org/wiki/History_of_the_United_States_Merchant_Marine'
p739
sS'6671e0b7b81ccbd118cd573067e6bd67'
p740
S'http://www.world-war-2.info/poems/poems_11.php'
p741
sS'4afbac958d4afcd0f282fd3717726680'
p742
S'http://www.history.com/photos/world-war-ii-damage-and-destruction'
p743
sS'5e4ca78a106fbd309430389056c1c6d9'
p744
S'http://www.world-war-2.info/figures/wilhelm-leeb.php'
p745
sS'58764f09a075398694634811ed068128'
p746
S'http://en.wikipedia.org/wiki/Lend_Lease'
p747
sS'9a6e8d5ab429e28b4d7250d3efcca46e'
p748
S'http://en.wikipedia.org/wiki/Albanian_resistance_during_World_War_II'
p749
sS'f0676221296f13c807d520707432b371'
p750
S'http://www.world-war-2.info/figures/leonard-cheshire.php'
p751
sS'3df36e09883da728275759862ac45c10'
p752
S'http://en.wikipedia.org/wiki/Third_Army_(Romania)'
p753
sS'ce92aa4f8521c041b338ff2696a4d30d'
p754
S'http://www.world-war-2.info/figures/keith-park.php'
p755
sS'ed62e4fe9f30d79a41fa5be79f51902a'
p756
S'http://en.wikipedia.org/wiki/Second_Army_(Hungary)'
p757
sS'c1c0bba5026cf2a50d9ee60ac12f81c4'
p758
S'http://www.world-war-2.info/figures/eric-dormon-smith.php'
p759
sS'b0e14e6da163b91a5297e2a8b193f21c'
p760
S'http://www.world-war-2.info/aircraft/aircraft_40.php'
p761
sS'c236985c1501fb1f24ab8da8f02c7d9c'
p762
S'http://www.world-war-2.info/aircraft/aircraft_75.php'
p763
sS'2ed9593934e6daa0e02e778e2669f1f3'
p764
S'http://www.world-war-2.info/aircraft/aircraft_34.php'
p765
sS'6952dbad2d6735142a5c0af8e3a87673'
p766
S'http://www.worldwarera.com'
p767
sS'c77c134d3da03bf490c08e7bba47b59a'
p768
S'http://en.wikipedia.org/wiki/Konstantin_Rokossovsky'
p769
sS'afce22bb8a3d9dba822d5d3fe30b6d63'
p770
S'http://en.wikipedia.org/wiki/Southwestern_Front_(Soviet_Union)'
p771
sS'7ad7382339cec1a1505d80f5200d716d'
p772
S'http://www.world-war-2.info/summary/'
p773
sS'aa780db4304bf3886fd6398f23589bdc'
p774
S'http://en.wikipedia.org/wiki/Pope_Caius'
p775
sS'd733b6639b62665838d448fd6daf147b'
p776
S'http://www.world-war-2.info/weapons/'
p777
sS'adb289950c6cd09ed85180d59b1d0a38'
p778
S'http://en.wikipedia.org/wiki/The_Motherland_Calls'
p779
sS'6e3d092471d07ccbb1af7e16f24fab35'
p780
S'http://www.world-war-2.info/battles/bt_11.php'
p781
sS'c4546bd8824783a0e8c35577ff76aced'
p782
S'http://www.world-war-2.info/figures/werner-von-fitsch.php'
p783
sS'7cd35c34f9795a7a9c2209abe337a32a'
p784
S'http://en.wikipedia.org/wiki/Category:Battles_and_operations_of_the_Soviet%E2%80%93German_War'
p785
sS'd71a779fe9f61740da4144d9b5311925'
p786
S'http://www.world-war-2.info/poems/poems_33.php'
p787
sS'b96728499e6d8b24568d40737842d173'
p788
S'http://www.columbia.edu/~lnp3/mydocs/culture/Battle_of_Stalingrad.htm'
p789
sS'377fa912bf1c33bbcf47e787916f2f20'
p790
S'http://en.wikipedia.org/wiki/File:Eastern_Front_1942-05_to_1942-11.png'
p791
sS'5fe90ca34f1ab4d721235ed3d38a4729'
p792
S'http://www.world-war-2.info/figures/john-dill.php'
p793
sS'5ce1c2a53d3fe5bd2974e21f8b9d1739'
p794
S'http://www.world-war-2.info/battles/bt_13.php'
p795
sS'703f146eab15e441b327f78f4465b06d'
p796
S'http://en.wikipedia.org/wiki/Harold_Alexander'
p797
sS'e97bb0478d794e1e6d60e69b0b520526'
p798
S'http://en.wikipedia.org/wiki/List_of_Japanese_government_and_military_commanders_of_World_War_II'
p799
sS'26921b9f3a501e578e638f9fac0bdda2'
p800
S'http://www.world-war-2.info/figures/john-gort.php'
p801
sS'e377a3838a4d3699876d274e175b8cc7'
p802
S'http://en.wikipedia.org/wiki/Timeline_of_World_War_II'
p803
sS'136e4d284d5002f09cee6a4123525eca'
p804
S'http://en.wikipedia.org/wiki/Demyansk_Pocket'
p805
sS'b6a1867dd62d75ecac9c2166c60e7003'
p806
S'http://en.wikipedia.org/wiki/Barmaley_Fountain'
p807
sS'58ce30d678656bc192bc4a03d7bd38d2'
p808
S'http://en.wikipedia.org/wiki/Voronezh_Front'
p809
sS'1d40587442163b246d4d77f4ff10f6d4'
p810
S'http://www.world-war-2.info/figures/kurt-von-tippelskirch.php'
p811
sS'192ba2747961afa574a96ddb703ba5a7'
p812
S'http://en.wikipedia.org/wiki/389th_Infantry_Division_(Wehrmacht)'
p813
sS'ea3a15f56dcf24911108bfa8249ad29e'
p814
S'http://www.world-war-2.info/aircraft/aircraft_46.php'
p815
sS'5fc2156c1c6fe34c34fd0ffb33643296'
p816
S'http://www.world-war-2.info/weapons/wp_12.php'
p817
sS'574a90718aa8936f9194f8f2568285cf'
p818
S'http://en.wikipedia.org/wiki/Index_of_World_War_II_articles_(C)'
p819
sS'4143e0239b29f1fc669aa2e3c2247484'
p820
S'http://www.world-war-2.info/figures/harold-alexander.php'
p821
sS'cc488c9f638b9e25dbb9775f54c1ad95'
p822
S'http://www.history.com/photos/world-war-ii-political-leaders'
p823
sS'72043f48f2fabcacbe4ddc3b6d2a9810'
p824
S'http://en.wikipedia.org/wiki/Airbridge_(logistics)'
p825
sS'17f545a0f6a0f0043f77a9fe3cbdb8ac'
p826
S'http://www.history.com/news/history-lists/7-ancient-sports-stars'
p827
sS'e9fe392f17eafd51ad5105f81b45cde8'
p828
S'http://en.wikipedia.org/wiki/Romanian_Armies_in_the_Battle_of_Stalingrad'
p829
sS'402c2a3b5f261055170c62e305626c97'
p830
S'http://www.world-war-2.info/aircraft/aircraft_22.php'
p831
sS'560f70e4b5c66717224c32eaa25ef32d'
p832
S'http://en.wikipedia.org/wiki/94th_Infantry_Division_(Wehrmacht)'
p833
sS'0f30c4b711e91e5d6e4171b2bf8d4c22'
p834
S'http://www.world-war-2.info/figures/mllard-harmon.php'
p835
sS'2270ade102ae14e21d92a9dbd533d028'
p836
S'http://en.wikipedia.org/wiki/Battle_of_Stalingrad'
p837
sS'180be6ffc23a9fa21efffd32343b4062'
p838
S'http://www.world-war-2.info/weapons/wp_5.php'
p839
sS'14a4673e355b4d36d6f9bd89b8f348de'
p840
S'http://en.wikipedia.org/wiki/Yakov_Pavlov'
p841
sS'8ef57be4fd237062a56910dca654be86'
p842
S'http://www.world-war-2.info/figures/richard-peirse.php'
p843
sS'91222fbea36aa9ca59d609a67e09181f'
p844
S'http://en.wikipedia.org/wiki/49th_Fighter_Wing'
p845
sS'33d3e7399a60e0815bd164576ad5f1d4'
p846
S'http://www.world-war-2.info/aircraft/aircraft_35.php'
p847
sS'273fc3be89bd653929b1f9b33b4b7f4b'
p848
S'http://en.wikipedia.org/wiki/File:Pavlov%27s_House.jpg'
p849
sS'5689dc264f1efe603d904ef3c52a4a13'
p850
S'http://www.world-war-2.info/aircraft/aircraft_29.php'
p851
sS'949ad577717d01597502c055057bbbc5'
p852
S'http://www.world-war-2.info/aircraft/aircraft_66.php'
p853
sS'ab7c13618e29926731a9748313beeae9'
p854
S'http://www.world-war-2.info/battles/bt_19.php'
p855
sS'd16c616d544dd1d40c31c5135458fe04'
p856
S'http://en.wikipedia.org/wiki/Operation_Uranus'
p857
sS'1a7cafdc9baa065cd1fe6f4dff21c5d6'
p858
S'http://www.world-war-2.info/figures/arthur-tedder.php'
p859
sS'04fa695b760f6e86f051f6832ea175b8'
p860
S'http://en.wikipedia.org/wiki/Andrei_Yeremenko'
p861
sS'1e1ca9f332cfc0d6687038e3887014ed'
p862
S'http://www.history.com/photos/axis-military-leaders'
p863
sS'75bcc9ff7e918b39bafdf4552c185fde'
p864
S'http://www.world-war-2.info/history/'
p865
sS'c646603cef5eab0e84c2d19b6c929d81'
p866
S'http://www.world-war-2.info/weapons/wp_7.php'
p867
sS'fa9e745858f6779e9abea471c0d2b88f'
p868
S'http://en.wikipedia.org/wiki/62nd_Army'
p869
sS'29f72138f43b1c4670c9c577a66a39ad'
p870
S'http://en.wikipedia.org/wiki/Brazilian_Air_Force'
p871
sS'5a4fca2d47a7f12836fb3071df1a7ed0'
p872
S'http://www.world-war-2.info/aircraft/aircraft_28.php'
p873
sS'84ca9f5ffc70c86a83c022a7a3bea0f2'
p874
S'http://en.wikipedia.org/wiki/Kansas_Republican_Party'
p875
sS'5f34206f7dd25a35ec5eac482ff4ba01'
p876
S'http://en.wikipedia.org/wiki/4th_Panzer_Army'
p877
sS'6cddf9e92c10082398392768cd11a972'
p878
S'http://en.wikipedia.org/wiki/Wilhelm_Hoffman'
p879
sS'b0485157cfe19e11055c2883c95d20bd'
p880
S'http://en.wikipedia.org/wiki/File:%D0%9F%D0%B0%D0%BC%D1%8F%D1%82%D0%BD%D0%B8%D0%BA_%D0%BD%D0%B0_%D0%9C%D0%B0%D0%BC%D0%B0%D0%B5%D0%B2%D0%BE%D0%BC_%D0%BA%D1%83%D1%80%D0%B3%D0%B0%D0%BD%D0%B5.jpg'
p881
sS'6b2c497473c99e70dbc559d0f091654c'
p882
S'http://www.world-war-2.info/figures/kurt-daluege.php'
p883
sS'e15cf026e06e15cf4af64f3ebf63c5c2'
p884
S'http://www.history.com/videos/battle-of-stalingrad'
p885
sS'6e1fa67fa040fbc3880954dff664a05e'
p886
S'http://en.wikipedia.org/wiki/Category:German_commanders_at_the_Battle_of_Stalingrad'
p887
sS'a13b96cf166a693aeec7964452751da9'
p888
S'http://en.wikipedia.org/wiki/North_African_campaign'
p889
sS'6961141cbb8132fe504630867cd0805a'
p890
S'http://www.world-war-2.info/manhattan-project/'
p891
sS'0aa02cceb55182d64d102a79f83e5b75'
p892
S'http://www.world-war-2.info/technology/'
p893
sS'9705cac7f7a5292548ebcdfef25ee1c9'
p894
S'http://en.wikipedia.org/wiki/List_of_Japanese_spies,_1930%E2%80%9345'
p895
sS'2b3d1bad4fea96c558c2a9e4d7df67b3'
p896
S'http://www.world-war-2.info/figures/erhard-miltch.php'
p897
sS'fdc4900fe4abd2eee5d09a026e56524b'
p898
S'http://en.wikipedia.org/wiki/South_African_Air_Force'
p899
sS'3b8b3d3266366fb5f75a1363bff91b2a'
p900
S'http://en.wikipedia.org/wiki/Battle_of_Nikolayevka'
p901
sS'642ddc4e54356351e732cdcae243b91c'
p902
S'http://en.wikipedia.org/wiki/Military_history_of_Albania_during_World_War_II'
p903
sS'0b802d0eb6c9f2a284ab829b57bfbcb3'
p904
S'http://www.history.com/news/9-things-you-may-not-know-about-texas'
p905
sS'f35fb753fc4b8a9846668277706a6ce0'
p906
S'http://en.wikipedia.org/wiki/File:Bundesarchiv_Bild_116-168-618,_Russland,_Kampf_um_Stalingrad,_Soldat_mit_MPi.jpg'
p907
sS'e522c01cfd8c9fcf6bba8c257dfb1d1a'
p908
S'http://www.world-war-2.info/poems/poems_32.php'
p909
sS'84190d086132425dbe42aef88f453d9c'
p910
S'http://en.wikipedia.org/wiki/List_of_United_States_Navy_people'
p911
sS'1ea22ce6f341fd188cc1fbf33b4a8dbe'
p912
S'http://en.wikipedia.org/wiki/Corfu'
p913
sS'a509caeec68e3e3820c335b973bf2609'
p914
S'http://www.world-war-2.info/aircraft/aircraft_71.php'
p915
sS'9b379bc713bcc325d68b8d3330cd3606'
p916
S'http://www.world-war-2.info/trivia/trivia_7.php'
p917
sS'c5c3b7a93659662dd2af54c8187f3a87'
p918
S'http://en.wikipedia.org/wiki/Operation_Little_Saturn'
p919
sS'af70e3a719a63378306111475b15d1b5'
p920
S'http://www.world-war-2.info/figures/kurt-hammerstein-equord.php'
p921
sS'997cfda5249280f036a2b52f034954d2'
p922
S'http://en.wikipedia.org/wiki/File:Bundesarchiv_Bild_183-E0406-0022-001,_Russland,_Kesselschlacht_Stalingrad.jpg'
p923
sS'b57b307ee0f434b095143936a48982e1'
p924
S'http://www.world-war-2.info/figures/william-halsey.php'
p925
sS'0cb5dec02a73192dce81a847230493e8'
p926
S'http://en.wikipedia.org/wiki/Nikolay_Vatutin'
p927
sS'e3db5ea01e40f14cd9554c6ec5bbb4bc'
p928
S'http://en.wikipedia.org/wiki/Steam_engine'
p929
sS'c23a509c53af477b5c281ae78513cbfe'
p930
S'http://www.world-war-2.info/battles/bt_3.php'
p931
sS'84fc95c99f27ab67dccf39038de7df62'
p932
S'http://en.wikipedia.org/wiki/Archibald_Wavell'
p933
sS'eedcc9398de50d35ed7a5ba7480d33bb'
p934
S'http://en.wikipedia.org/wiki/File:Bundesarchiv_Bild_169-0526,_Russland,_Scharfsch%C3%BCtze_in_Stellung.jpg'
p935
sS'da61693a36d631c5351c2e92ebf84203'
p936
S'http://en.wikipedia.org/wiki/File:Bundesarchiv_Bild_183-W0506-316,_Russland,_Kampf_um_Stalingrad,_Siegesflagge.jpg'
p937
sS'e9b0c7e18162a4817bc7d8bb71a08871'
p938
S'http://www.world-war-2.info/aircraft/aircraft_57.php'
p939
sS'2d38f768ab9f63515ff3eb50ef20f5d9'
p940
S'http://en.wikipedia.org/wiki/Italo_Gariboldi'
p941
sS'f643e4aa8c0d6a2afee61d6413771ba0'
p942
S'http://www.world-war-2.info/aircraft/aircraft_25.php'
p943
sS'97117e803e3f85c1a23a1940617b78d7'
p944
S'http://www.world-war-2.info/aircraft/aircraft_21.php'
p945
sS'f917fee79d9c8371f13e0244489d48a9'
p946
S'http://en.wikipedia.org/wiki/1st_Guards_Army_(Soviet_Union)'
p947
sS'5f942e104d4ff4c148385c340c5fb615'
p948
S'http://en.wikipedia.org/wiki/File:Bundesarchiv_Bild_183-B28822,_Russland,_Kampf_um_Stalingrad,_Infanterie.jpg'
p949
sS'a213418ef09ab3b23e142f372b4b7541'
p950
S'http://en.wikipedia.org/wiki/Bernard_Campbell_Fletcher'
p951
sS'8ec028959f97f653f412161db499db28'
p952
S'http://www.world-war-2.info/weapons/wp_6.php'
p953
sS'9e3b20933a4079744833d9b5af8baab0'
p954
S'http://en.wikipedia.org/wiki/Battle_of_Changde'
p955
sS'b349aa321469491d87d2c72e9a9a7f11'
p956
S'http://en.wikipedia.org/wiki/Viktor_Yushchenko'
p957
sS'5129a17c22e005d715a8cab1173b3f85'
p958
S'http://www.militaryhistoryonline.com/wwii/stalingrad/default.aspx'
p959
sS'82e304be67c3caa2ae1982e1bc17ed4e'
p960
S'http://www.history.com/photos/allied-military-leaders'
p961
sS'6cb55bbbe1cf4ec317f1dc2de5e49e2f'
p962
S'http://en.wikipedia.org/wiki/Markian_Popov'
p963
sS'1d4d0e38e7d01deea3b3ad80c3fd6ced'
p964
S'http://www.world-war-2.info/figures/ernst-busch.php'
p965
sS'06a357a2dadb97e84e28c2dfa636a636'
p966
S'http://en.wikipedia.org/wiki/Romanian_Third_Army'
p967
sS'83ce57713ee9503f8acf155cf36c2f48'
p968
S'http://www.history.com/news/horse-racings-triple-crown-10-fast-facts'
p969
sS'237b5479fe320a8c5c50721b6df0125d'
p970
S'http://en.wikipedia.org/wiki/Category:Politics_of_World_War_II'
p971
sS'b836f7360dfc2fc36ccc824d42f4caed'
p972
S'http://en.wikipedia.org/wiki/Bombing_of_Stalingrad_in_World_War_II'
p973
sS'af6ffbe1356393a7b41dfdefe549f7c9'
p974
S'http://www.world-war-2.info/countries/'
p975
sS'5815929218bc00ad16f171228b44a67b'
p976
S'http://en.wikipedia.org/wiki/Virginia_Tech'
p977
sS'3a44b8808e46b8ff3d469d763ffd318b'
p978
S'http://en.wikipedia.org/wiki/Democratic_Party_of_Guam'
p979
sS'e9e12f7d91ea9be29f49d8dcfbbecfb0'
p980
S'http://www.world-war-2.info/figures/werner-von-blomberg.php'
p981
sS'3d19f5751da457756752ad7d0c2870f0'
p982
S'http://www.world-war-2.info/aircraft/aircraft_41.php'
p983
sS'ecd109ee34db6c735a547f07232120ce'
p984
S'http://www.world-war-2.info/figures/gerd-von-rundstedt.php'
p985
sS'26f4f4f1a7531341950cf9581d2d2187'
p986
S'http://www.world-war-2.info/battles/bt_2.php'
p987
sS'85ef331a67ddd7ed2f438b68b65f0ebc'
p988
S'http://en.wikipedia.org/wiki/Flag_of_the_United_States'
p989
sS'0bf50bc2fa2ce708ae09b79317adfd4d'
p990
S'http://www.borodulincollection.com/war/english/index.html'
p991
sS'd1baf48a1b8a538a7912eae974583e24'
p992
S'http://www.history.com/news/10-things-you-may-not-know-about-the-winter-olympics'
p993
sS'a72d3c38245e3a1425afdfbcac348b4f'
p994
S'http://www.world-war-2.info/aircraft/aircraft_36.php'
p995
sS'e2f4b8860f1a2105c4fc90f670be63a9'
p996
S'http://en.wikipedia.org/wiki/1077th_Anti-Aircraft_Regiment'
p997
sS'355b58a3d7546474e7cf702a4f3a0fd4'
p998
S'http://www.world-war-2.info/figures/william-donovan.php'
p999
sS'ba7e20d38576608ac4fb07d83de7d1b0'
p1000
S'http://www.world-war-2.info/weapons/wp_15.php'
p1001
sS'ae2f8bc9b29fbe9ecfe4c725f3720542'
p1002
S'http://en.wikipedia.org/wiki/Outline_of_World_War_II'
p1003
sS'20463baff5ea2ee24a86ab5f35e45d70'
p1004
S'http://en.wikipedia.org/wiki/53d_Troop_Carrier_Wing_(World_War_II)'
p1005
sS'689485280fbcf7710e2094a734a12b3c'
p1006
S'http://www.theatlantic.com/infocus/2011/09/world-war-ii-the-eastern-front/100150/'
p1007
sS'f8a004397e1df04c025851f0a7613297'
p1008
S'http://en.wikipedia.org/wiki/13th_Guards_Rifle_Division'
p1009
sS'c7b330203a554798c81f38550eae36f8'
p1010
S'http://en.wikipedia.org/wiki/Alfred_Thayer_Mahan'
p1011
sS'13d29a71b76421aabe44d00f7ecd3622'
p1012
S'http://www.world-war-2.info/aircraft/aircraft_63.php'
p1013
sS'db9ff832b66db1e4fac87e608ce8778e'
p1014
S'http://en.wikipedia.org/wiki/East_African_Campaign_(World_War_II)'
p1015
sS'6930d38f35988ae204d6013826b4bdfc'
p1016
S'http://en.wikipedia.org/wiki/Henry_Maitland_Wilson,_1st_Baron_Wilson'
p1017
sS'812df4b1a344dcf7899db2d85b6966d8'
p1018
S'http://www.world-war-2.info/aircraft/aircraft_20.php'
p1019
sS'c13e2d126c1d2046dcd44fd81ef4c3bc'
p1020
S'http://en.wikipedia.org/wiki/Decretum_Gratiani'
p1021
sS'f98f45314c972d6d08df9de7ae2e9dd8'
p1022
S'http://en.wikipedia.org/wiki/Viktor_Pavi%C4%8Di%C4%87'
p1023
sS'74bb907beda3b38aaabad64ff208cd89'
p1024
S'http://www.world-war-2.info/aircraft/aircraft_59.php'
p1025
sS'3c2b77c1f5f51f356aa5fc83b5ce7062'
p1026
S'http://en.wikipedia.org/wiki/File:Stalingrad_aftermath.jpg'
p1027
sS'a13fedb0823d9bd50b846c3e7813720c'
p1028
S'http://www.world-war-2.info/weapons/wp_17.php'
p1029
sS'1d3b520787d46c8f94ac5706c4d6d111'
p1030
S'http://www.world-war-2.info/trivia/trivia_10.php'
p1031
sS'07afb7750ede43cb89b812490c410b04'
p1032
S'http://en.wikipedia.org/wiki/Template_talk:World_War_II'
p1033
sS'7d84087db49b1a315b5af18ae604ee99'
p1034
S'http://en.wikipedia.org/wiki/Glossary_of_German_military_terms'
p1035
sS'456fe5bcaa8e3f0b8001dc538223b412'
p1036
S'http://en.wikipedia.org/wiki/The_Holocaust_in_Russia'
p1037
sS'0ae5ecfe715cad4fcd35872b03f764ae'
p1038
S'http://en.wikipedia.org/wiki/German_Fourth_Panzer_Army'
p1039
sS'b785af7147e833089898a518beec65c3'
p1040
S'http://www.world-war-2.info/aircraft/aircraft_64.php'
p1041
sS'617f84f38548aaf67566b42974512e29'
p1042
S'http://en.wikipedia.org/wiki/Template_talk:Battle_of_Stalingrad'
p1043
sS'4c2426ce8c1018d405e574491867775d'
p1044
S'http://en.wikipedia.org/wiki/Category:German_units_at_the_Battle_of_Stalingrad'
p1045
sS'5e90118d860601192f9124b14494abd7'
p1046
S'http://en.wikipedia.org/wiki/%C5%81achwa_Ghetto'
p1047
sS'a3b4d291f0bb28c00d4112945e58703d'
p1048
S'http://en.wikipedia.org/wiki/Military_occupations_by_the_Soviet_Union'
p1049
sS'1e9e35033af185904ba1cec40a4775d2'
p1050
S'http://en.wikipedia.org/wiki/Military_history_of_Britain_during_World_War_II'
p1051
sS'484dc722f75f588e11fde9642b648bfa'
p1052
S'http://en.wikipedia.org/wiki/Radar'
p1053
sS'bef68c6b2137cc6967188581001c028e'
p1054
S'http://www.world-war-2.info/figures/frank-merrill.php'
p1055
sS'acc143041656d82bf434554e35d92ddf'
p1056
S'http://en.wikipedia.org/wiki/Ukrainian_collaborationism_with_the_Axis_powers'
p1057
sS'fd939688b7379721cb6e92577ac6edcd'
p1058
S'http://www.world-war-2.info/figures/walther-model.php'
p1059
sS'35fffe8992c81d7cd2f6136950ffccad'
p1060
S'http://www.world-war-2.info/figures/george-marshall.php'
p1061
sS'589bbd9e89c5881fb20b7e644baff5c2'
p1062
S'http://en.wikipedia.org/wiki/JG_3'
p1063
sS'0f59e30512c96a83d3cf4c512b959468'
p1064
S'http://en.wikipedia.org/wiki/14th_Panzer_Division_(Wehrmacht)'
p1065
sS'd7eae83c6a382fa218b26c0bd25090e1'
p1066
S'http://en.wikipedia.org/wiki/Nikolay_Voronov'
p1067
sS'e0b492b8e493cacc737fe08e96ee1f90'
p1068
S'http://en.wikipedia.org/wiki/File:Bundesarchiv_Bild_183-J20509,_Russland,_Kampf_um_Stalingrad,_Luftangriff.jpg'
p1069
sS'89a50dc9ba53c2f900f654e670ec2736'
p1070
S'http://en.wikipedia.org/wiki/File:Stalingrad_-_ruined_city.jpg'
p1071
sS'bf221bb6277f37dec6865c4ddbfec3ba'
p1072
S'http://www.world-war-2.info/figures/walther-von-reichenau.php'
p1073
sS'bf910e400ed7f078af74e44923947f12'
p1074
S'https://www.jewishvirtuallibrary.org/jsource/ww2/chinawar.html'
p1075
sS'8e57ae682ad16a75077547d1dc65ded4'
p1076
S'http://en.wikipedia.org/wiki/List_of_Soviet_armies'
p1077
sS'236296062744a7e4488b45f65080b2b9'
p1078
S'http://www.world-war-2.info/trivia/trivia_15.php'
p1079
sS'269bb014f82e5a7f3247fd991347e3b1'
p1080
S'http://www.world-war-2.info/memorials/'
p1081
sS'b35a7b1281af5f06a9ea98746072868f'
p1082
S'http://www.world-war-2.info/figures/gaston-billotte.php'
p1083
sS'23db4d8e5c6d41aab0fcefdeb4fa0a0a'
p1084
S'http://www.torweihe.de/'
p1085
sS'faba989d387a4d2c9b79cb31be029836'
p1086
S'http://en.wikipedia.org/wiki/Italian_conquest_of_British_Somaliland'
p1087
sS'f01d79c5f7cd2f8b06af6c119abbcfa1'
p1088
S'http://www.world-war-2.info/aircraft/aircraft_31.php'
p1089
sS'e19943cb9e4a97c5a8eedffe7603a993'
p1090
S'http://en.wikipedia.org/wiki/Alexander_Shcherbakov'
p1091
sS'eee64af1fc4521cb9a1ee8ab4660d74b'
p1092
S'http://www.world-war-2.info/figures/freidrich-paulus.php'
p1093
sS'40714132bbebd9e4f3f4f6a7bc0e8ca1'
p1094
S'http://www.world-war-2.info/weapons/wp_14.php'
p1095
sS'8b81dd4748f96c4e2c3267cfd691edc0'
p1096
S'http://www.world-war-2.info/aircraft/aircraft_50.php'
p1097
sS'b4167aecdaf4de08054af0f362fc9bb9'
p1098
S'http://www.world-war-2.info/figures/colin-gubbins.php'
p1099
sS'be50db6628bd748b66e801197dbb58b6'
p1100
S'http://www.world-war-2.info/figures/edgar-ludlow-hewitt.php'
p1101
sS'c56630173b92935d3998fc08ddacac11'
p1102
S'http://www.world-war-2.info/figures/jean-maarie-de-lattre.php'
p1103
sS'ed61f1129ea7c29f95ce2cf07b7e3f7c'
p1104
S'http://research.calvin.edu/german-propaganda-archive/ww2era.htm'
p1105
sS'26906ee544ee07e0985857cb33b03239'
p1106
S'http://www.history.com/photos/famous-gi-bill-recipients'
p1107
sS'efeb4976e908dceb87f8732e95c6bfdf'
p1108
S'http://en.wikipedia.org/wiki/Soviet_women_in_World_War_II'
p1109
sS'c88bb041ebf446af1712841fc7711eb1'
p1110
S'http://en.wikipedia.org/wiki/Volgograd_Tractor_Factory'
p1111
sS'e31b0512d1ef7bf9646ce8f15ec6a3eb'
p1112
S'http://www.world-war-2.info/aircraft/aircraft_54.php'
p1113
sS'2b8ba568601e6babd03cac9d5f8aaa14'
p1114
S'http://en.wikipedia.org/wiki/Operation_Winter_Storm'
p1115
sS'4f810fbb16665750454430781f9d0140'
p1116
S'http://en.wikipedia.org/wiki/Ranks_in_the_French_Army'
p1117
sS'96d0711ffec1bed72fd6201b80561b70'
p1118
S'http://en.wikipedia.org/wiki/British_Indian_Army'
p1119
sS'e4eac6f5ad8e081a1c4b679a4eac2119'
p1120
S'http://en.wikipedia.org/wiki/Drew_Field'
p1121
sS'3906546088b6ff707279321dacbce0da'
p1122
S'http://www.world-war-2.info/figures/'
p1123
sS'97f624e23a5bcd8b73c1d4716830015f'
p1124
S'http://en.wikipedia.org/wiki/Soviet_Southwestern_Front'
p1125
sS'901a76a2aab9be3a6f392c02a3815e64'
p1126
S'http://www.world-war-2.info/trivia/trivia_14.php'
p1127
sS'875f43db649fcac4afa5184c402ba79d'
p1128
S'http://www.world-war-2.info/figures/karl-doenitz.php'
p1129
sS'1bc160264bc6f96a929305fa9928c9dc'
p1130
S'http://www.world-war-2.info/figures/brian-horrocks.php'
p1131
sS'a9059a32b4d4772aca81e341aa2e8eea'
p1132
S'http://en.wikipedia.org/wiki/File:Germans_in_Stalingrad.jpg'
p1133
sS'612b119c96ef1083017f3e3d77be27a5'
p1134
S'http://www.world-war-2.info/figures/lewis-puller.php'
p1135
sS'637a385f7bfe4f15db62f517c924c7bc'
p1136
S'http://www.world-war-2.info/trivia/trivia_13.php'
p1137
sS'17bf1ed5647acccc4573873757af3874'
p1138
S'http://www.world-war-2.info/aircraft/aircraft_76.php'
p1139
sS'e14e1aa4922c49ae74581d6c2f7876e7'
p1140
S'http://en.wikipedia.org/wiki/Lend_Lease_Act'
p1141
sS'8e49a13b163518b6cc713fda93c88744'
p1142
S'http://www.history.com/topics/world-war-ii/american-women-in-world-war-ii/print'
p1143
sS'89e13ae2179583643b35305489cd97aa'
p1144
S'http://en.wikipedia.org/wiki/Peter_Gitelman'
p1145
sS'6e426bdbc7b497d675ef3127546f1e3e'
p1146
S'http://www.world-war-2.info/figures/charles-portal.php'
p1147
sS'de22e1feb7d2ab29d90cac86553bc212'
p1148
S'http://en.wikipedia.org/wiki/Alexander_Rodimtsev'
p1149
sS'8eb24c57e2dc1e87700b123262a436f7'
p1150
S'http://en.wikipedia.org/wiki/Alan_Brooke'
p1151
sS'b8a3f0e0485787207eae97c656dbefdd'
p1152
S'http://en.wikipedia.org/wiki/German_4th_Panzer_Army'
p1153
sS'1400688a65adca52bf43c2920af9f0fb'
p1154
S'http://en.wikipedia.org/wiki/Operation_Blue'
p1155
sS'21598b5c0097e083cb806907fa2de07b'
p1156
S'http://www.world-war-2.info/figures/hans-ulrich-rudel.php'
p1157
sS'05d84334d1f44a6be264ac44fc2048d7'
p1158
S'http://www.world-war-2.info/aircraft/aircraft_16.php'
p1159
sS'b9a7de6466da771ed51a05ee0f1c2150'
p1160
S'http://www.world-war-2.info/aircraft/aircraft_33.php'
p1161
sS'9136dc7358a80d01e61a666ac50b7215'
p1162
S'http://www.history.com/topics/us-presidents/presidential-elections/print'
p1163
sS'60a13d62e85013afccf30703600ccffd'
p1164
S'http://en.wikipedia.org/wiki/Don_Front'
p1165
s.